target datalayout = "e-m:e-p270:32:32-p271:32:32-p272:64:64-i64:64-i128:128-f80:128-n8:16:32:64-S128"
target triple = "x86_64-pc-linux-gnu"

%struct._generic_addr_id_string = type { i32, i32, ptr }

@.str.855 = private unnamed_addr constant [72 x i8] c"We currently only support identifiers <= %x (Addr: %x ID: %i  Name: %s)\00", align 1
@.str.856 = private unnamed_addr constant [103 x i8] c"We currently only support 16 bit addresses with 0xffffffff = \22don't care\22 (Addr: %x  ID: %i  Name: %s)\00", align 1
@.str.857 = private unnamed_addr constant [21 x i8] c"Name cannot be empty\00", align 1

; Function Attrs: null_pointer_is_valid sspstrong uwtable
define internal zeroext i1 @update_generic_addr_16bit_id_var(ptr noundef %0, ptr noundef %1, i32 noundef %2) #0 {
  %4 = alloca i1, align 1
  %5 = alloca ptr, align 8
  %6 = alloca ptr, align 8
  %7 = alloca i32, align 4
  %8 = alloca ptr, align 8
  %9 = alloca i32, align 4
  store ptr %0, ptr %5, align 8
  store ptr %1, ptr %6, align 8
  store i32 %2, ptr %7, align 4
  call void @llvm.lifetime.start.p0(i64 8, ptr %8) #12
  %10 = load ptr, ptr %5, align 8
  store ptr %10, ptr %8, align 8
  %11 = load ptr, ptr %8, align 8
  %12 = getelementptr inbounds nuw %struct._generic_addr_id_string, ptr %11, i32 0, i32 1
  %13 = load i32, ptr %12, align 4
  %14 = load i32, ptr %7, align 4
  %15 = icmp ugt i32 %13, %14
  br i1 %15, label %16, label %29

16:                                               ; preds = %3
  %17 = load i32, ptr %7, align 4
  %18 = load ptr, ptr %8, align 8
  %19 = getelementptr inbounds nuw %struct._generic_addr_id_string, ptr %18, i32 0, i32 0
  %20 = load i32, ptr %19, align 8
  %21 = load ptr, ptr %8, align 8
  %22 = getelementptr inbounds nuw %struct._generic_addr_id_string, ptr %21, i32 0, i32 1
  %23 = load i32, ptr %22, align 4
  %24 = load ptr, ptr %8, align 8
  %25 = getelementptr inbounds nuw %struct._generic_addr_id_string, ptr %24, i32 0, i32 2
  %26 = load ptr, ptr %25, align 8
  %27 = call noalias ptr (ptr, ptr, ...) @wmem_strdup_printf(ptr noundef null, ptr noundef @.str.855, i32 noundef %17, i32 noundef %20, i32 noundef %23, ptr noundef %26)
  %28 = load ptr, ptr %6, align 8
  store ptr %27, ptr %28, align 8
  store i1 false, ptr %4, align 1
  store i32 1, ptr %9, align 4
  br label %68

29:                                               ; preds = %3
  %30 = load ptr, ptr %8, align 8
  %31 = getelementptr inbounds nuw %struct._generic_addr_id_string, ptr %30, i32 0, i32 0
  %32 = load i32, ptr %31, align 8
  %33 = icmp ugt i32 %32, 65535
  br i1 %33, label %34, label %51

34:                                               ; preds = %29
  %35 = load ptr, ptr %8, align 8
  %36 = getelementptr inbounds nuw %struct._generic_addr_id_string, ptr %35, i32 0, i32 0
  %37 = load i32, ptr %36, align 8
  %38 = icmp ne i32 %37, -1
  br i1 %38, label %39, label %51

39:                                               ; preds = %34
  %40 = load ptr, ptr %8, align 8
  %41 = getelementptr inbounds nuw %struct._generic_addr_id_string, ptr %40, i32 0, i32 0
  %42 = load i32, ptr %41, align 8
  %43 = load ptr, ptr %8, align 8
  %44 = getelementptr inbounds nuw %struct._generic_addr_id_string, ptr %43, i32 0, i32 1
  %45 = load i32, ptr %44, align 4
  %46 = load ptr, ptr %8, align 8
  %47 = getelementptr inbounds nuw %struct._generic_addr_id_string, ptr %46, i32 0, i32 2
  %48 = load ptr, ptr %47, align 8
  %49 = call noalias ptr (ptr, ptr, ...) @wmem_strdup_printf(ptr noundef null, ptr noundef @.str.856, i32 noundef %42, i32 noundef %45, ptr noundef %48)
  %50 = load ptr, ptr %6, align 8
  store ptr %49, ptr %50, align 8
  store i1 false, ptr %4, align 1
  store i32 1, ptr %9, align 4
  br label %68

51:                                               ; preds = %34, %29
  %52 = load ptr, ptr %8, align 8
  %53 = getelementptr inbounds nuw %struct._generic_addr_id_string, ptr %52, i32 0, i32 2
  %54 = load ptr, ptr %53, align 8
  %55 = icmp eq ptr %54, null
  br i1 %55, label %64, label %56

56:                                               ; preds = %51
  %57 = load ptr, ptr %8, align 8
  %58 = getelementptr inbounds nuw %struct._generic_addr_id_string, ptr %57, i32 0, i32 2
  %59 = load ptr, ptr %58, align 8
  %60 = getelementptr i8, ptr %59, i64 0
  %61 = load i8, ptr %60, align 1
  %62 = sext i8 %61 to i32
  %63 = icmp eq i32 %62, 0
  br i1 %63, label %64, label %67

64:                                               ; preds = %56, %51
  %65 = call noalias ptr @g_strdup(ptr noundef @.str.857)
  %66 = load ptr, ptr %6, align 8
  store ptr %65, ptr %66, align 8
  store i1 false, ptr %4, align 1
  store i32 1, ptr %9, align 4
  br label %68

67:                                               ; preds = %56
  store i1 true, ptr %4, align 1
  store i32 1, ptr %9, align 4
  br label %68

68:                                               ; preds = %67, %64, %39, %16
  call void @llvm.lifetime.end.p0(i64 8, ptr %8) #12
  %69 = load i1, ptr %4, align 1
  ret i1 %69
}

; Function Attrs: null_pointer_is_valid sspstrong uwtable
define internal zeroext i1 @update_generic_addr_16bit_id_24bit(ptr noundef %0, ptr noundef %1) #0 {
  %3 = alloca ptr, align 8
  %4 = alloca ptr, align 8
  store ptr %0, ptr %3, align 8
  store ptr %1, ptr %4, align 8
  %5 = load ptr, ptr %3, align 8
  %6 = load ptr, ptr %4, align 8
  %7 = call zeroext i1 @update_generic_addr_16bit_id_var(ptr noundef %5, ptr noundef %6, i32 noundef 16777215)
  ret i1 %7
}