; Function Attrs: null_pointer_is_valid sspstrong uwtable
define internal noundef zeroext i1 @update_generic_addr_16bit_id_24bit(ptr noundef readonly captures(none) %0, ptr noundef writeonly captures(none) %1) #0 {
  %3 = getelementptr inbounds nuw i8, ptr %0, i64 4
  %4 = load i32, ptr %3, align 4
  %5 = icmp ugt i32 %4, 16777215
  %6 = load i32, ptr %0, align 8
  br i1 %5, label %7, label %11

7:                                                ; preds = %2
  %8 = getelementptr inbounds nuw i8, ptr %0, i64 8
  %9 = load ptr, ptr %8, align 8
  %10 = tail call noalias ptr (ptr, ptr, ...) @wmem_strdup_printf(ptr noundef null, ptr noundef nonnull @.str.855, i32 noundef 16777215, i32 noundef %6, i32 noundef %4, ptr noundef %9)
  br label %.sink.split.i

11:                                               ; preds = %2
  %12 = add i32 %6, 1
  %or.cond.i = icmp ult i32 %12, 65537
  %13 = getelementptr inbounds nuw i8, ptr %0, i64 8
  %14 = load ptr, ptr %13, align 8
  br i1 %or.cond.i, label %17, label %15

15:                                               ; preds = %11
  %16 = tail call noalias ptr (ptr, ptr, ...) @wmem_strdup_printf(ptr noundef null, ptr noundef nonnull @.str.856, i32 noundef %6, i32 noundef %4, ptr noundef %14)
  br label %.sink.split.i

17:                                               ; preds = %11
  %18 = icmp eq ptr %14, null
  br i1 %18, label %22, label %19

19:                                               ; preds = %17
  %20 = load i8, ptr %14, align 1
  %21 = icmp eq i8 %20, 0
  br i1 %21, label %22, label %update_generic_addr_16bit_id_var.exit

22:                                               ; preds = %19, %17
  %23 = tail call noalias ptr @g_strdup(ptr noundef nonnull @.str.857)
  br label %.sink.split.i

.sink.split.i:                                    ; preds = %22, %15, %7
  %.sink.i = phi ptr [ %23, %22 ], [ %16, %15 ], [ %10, %7 ]
  store ptr %.sink.i, ptr %1, align 8
  br label %update_generic_addr_16bit_id_var.exit

update_generic_addr_16bit_id_var.exit:            ; preds = %19, %.sink.split.i
  %.0.i = phi i1 [ true, %19 ], [ false, %.sink.split.i ]
  ret i1 %.0.i
}